target datalayout = "e-m:e-p270:32:32-p271:32:32-p272:64:64-i64:64-i128:128-f80:128-n8:16:32:64-S128"
target triple = "x86_64-unknown-linux-gnu"

%struct.BdrvDirtyBitmap = type { ptr, ptr, i8, ptr, ptr, i64, i8, i32, i8, i8, i8, i8, %struct.anon }
%struct.anon = type { ptr, ptr }
%struct.BdrvDirtyBitmapIter = type { %struct.HBitmapIter, ptr }
%struct.HBitmapIter = type { ptr, i32, i64, [7 x i64] }

@.str.1 = private unnamed_addr constant [29 x i8] c"../qemu/block/dirty-bitmap.c\00", align 1
@.str.20 = private unnamed_addr constant [35 x i8] c"iter->bitmap->active_iterators > 0\00", align 1
@__PRETTY_FUNCTION__.bdrv_dirty_iter_free = private unnamed_addr constant [49 x i8] c"void bdrv_dirty_iter_free(BdrvDirtyBitmapIter *)\00", align 1

; Function Attrs: nounwind sspstrong uwtable
define dso_local void @bdrv_dirty_iter_free(ptr noundef %iter) #0 {
entry:
  %iter.addr = alloca ptr, align 8
  store ptr %iter, ptr %iter.addr, align 8
  %0 = load ptr, ptr %iter.addr, align 8
  %tobool = icmp ne ptr %0, null
  br i1 %tobool, label %if.end, label %if.then

if.then:                                          ; preds = %entry
  br label %return

if.end:                                           ; preds = %entry
  %1 = load ptr, ptr %iter.addr, align 8
  %bitmap = getelementptr inbounds %struct.BdrvDirtyBitmapIter, ptr %1, i32 0, i32 1
  %2 = load ptr, ptr %bitmap, align 8
  %active_iterators = getelementptr inbounds %struct.BdrvDirtyBitmap, ptr %2, i32 0, i32 7
  %3 = load i32, ptr %active_iterators, align 4
  %cmp = icmp sgt i32 %3, 0
  br i1 %cmp, label %if.then1, label %if.else

if.then1:                                         ; preds = %if.end
  br label %if.end2

if.else:                                          ; preds = %if.end
  call void @__assert_fail(ptr noundef @.str.20, ptr noundef @.str.1, i32 noundef 532, ptr noundef @__PRETTY_FUNCTION__.bdrv_dirty_iter_free) #11
  unreachable

if.end2:                                          ; preds = %if.then1
  %4 = load ptr, ptr %iter.addr, align 8
  %bitmap3 = getelementptr inbounds %struct.BdrvDirtyBitmapIter, ptr %4, i32 0, i32 1
  %5 = load ptr, ptr %bitmap3, align 8
  %active_iterators4 = getelementptr inbounds %struct.BdrvDirtyBitmap, ptr %5, i32 0, i32 7
  %6 = load i32, ptr %active_iterators4, align 4
  %dec = add i32 %6, -1
  store i32 %dec, ptr %active_iterators4, align 4
  %7 = load ptr, ptr %iter.addr, align 8
  call void @g_free(ptr noundef %7)
  br label %return

return:                                           ; preds = %if.end2, %if.then
  ret void
}