; Function Attrs: nounwind sspstrong uwtable
define dso_local void @bdrv_dirty_iter_free(ptr noundef %iter) local_unnamed_addr #0 {
entry:
  %tobool.not = icmp eq ptr %iter, null
  br i1 %tobool.not, label %return, label %if.end

if.end:                                           ; preds = %entry
  %bitmap = getelementptr inbounds nuw i8, ptr %iter, i64 80
  %0 = load ptr, ptr %bitmap, align 8
  %active_iterators = getelementptr inbounds nuw i8, ptr %0, i64 52
  %1 = load i32, ptr %active_iterators, align 4
  %cmp = icmp sgt i32 %1, 0
  br i1 %cmp, label %if.end2, label %if.else

if.else:                                          ; preds = %if.end
  tail call void @__assert_fail(ptr noundef nonnull @.str.20, ptr noundef nonnull @.str.1, i32 noundef 532, ptr noundef nonnull @__PRETTY_FUNCTION__.bdrv_dirty_iter_free) #15
  unreachable

if.end2:                                          ; preds = %if.end
  %dec = add nsw i32 %1, -1
  store i32 %dec, ptr %active_iterators, align 4
  tail call void @g_free(ptr noundef nonnull %iter) #14
  br label %return

return:                                           ; preds = %entry, %if.end2
  ret void
}